target datalayout = "e-m:e-p270:32:32-p271:32:32-p272:64:64-i64:64-i128:128-f80:128-n8:16:32:64-S128"
target triple = "x86_64-pc-linux-gnu"

; Function Attrs: nounwind uwtable
define internal void @put_luma_hv_12(ptr noundef %0, ptr noundef %1, i64 noundef %2, i32 noundef %3, ptr noundef %4, ptr noundef %5, i32 noundef %6) #0 {
  %8 = alloca ptr, align 8
  %9 = alloca ptr, align 8
  %10 = alloca i64, align 8
  %11 = alloca i32, align 4
  %12 = alloca ptr, align 8
  %13 = alloca ptr, align 8
  %14 = alloca i32, align 4
  %15 = alloca [17280 x i16], align 16
  %16 = alloca ptr, align 8
  %17 = alloca ptr, align 8
  %18 = alloca i64, align 8
  %19 = alloca ptr, align 8
  %20 = alloca i32, align 4
  %21 = alloca i32, align 4
  %22 = alloca i32, align 4
  %23 = alloca i32, align 4
  %24 = alloca i32, align 4
  store ptr %0, ptr %8, align 8, !tbaa !142
  store ptr %1, ptr %9, align 8, !tbaa !144
  store i64 %2, ptr %10, align 8, !tbaa !146
  store i32 %3, ptr %11, align 4, !tbaa !9
  store ptr %4, ptr %12, align 8, !tbaa !144
  store ptr %5, ptr %13, align 8, !tbaa !144
  store i32 %6, ptr %14, align 4, !tbaa !9
  call void @llvm.lifetime.start.p0(i64 34560, ptr %15) #8
  call void @llvm.lifetime.start.p0(i64 8, ptr %16) #8
  %25 = getelementptr inbounds [17280 x i16], ptr %15, i64 0, i64 0
  store ptr %25, ptr %16, align 8, !tbaa !142
  call void @llvm.lifetime.start.p0(i64 8, ptr %17) #8
  %26 = load ptr, ptr %9, align 8, !tbaa !144
  store ptr %26, ptr %17, align 8, !tbaa !142
  call void @llvm.lifetime.start.p0(i64 8, ptr %18) #8
  %27 = load i64, ptr %10, align 8, !tbaa !146
  %28 = udiv i64 %27, 2
  store i64 %28, ptr %18, align 8, !tbaa !146
  call void @llvm.lifetime.start.p0(i64 8, ptr %19) #8
  %29 = load ptr, ptr %12, align 8, !tbaa !144
  store ptr %29, ptr %19, align 8, !tbaa !144
  %30 = load i64, ptr %18, align 8, !tbaa !146
  %31 = mul nsw i64 3, %30
  %32 = load ptr, ptr %17, align 8, !tbaa !142
  %33 = sub i64 0, %31
  %34 = getelementptr inbounds i16, ptr %32, i64 %33
  store ptr %34, ptr %17, align 8, !tbaa !142
  call void @llvm.lifetime.start.p0(i64 4, ptr %20) #8
  store i32 0, ptr %20, align 4, !tbaa !9
  br label %35

35:                                               ; preds = %165, %7
  %36 = load i32, ptr %20, align 4, !tbaa !9
  %37 = load i32, ptr %11, align 4, !tbaa !9
  %38 = add nsw i32 %37, 7
  %39 = icmp slt i32 %36, %38
  br i1 %39, label %41, label %40

40:                                               ; preds = %35
  store i32 2, ptr %21, align 4
  call void @llvm.lifetime.end.p0(i64 4, ptr %20) #8
  br label %168

41:                                               ; preds = %35
  call void @llvm.lifetime.start.p0(i64 4, ptr %22) #8
  store i32 0, ptr %22, align 4, !tbaa !9
  br label %42

42:                                               ; preds = %156, %41
  %43 = load i32, ptr %22, align 4, !tbaa !9
  %44 = load i32, ptr %14, align 4, !tbaa !9
  %45 = icmp slt i32 %43, %44
  br i1 %45, label %47, label %46

46:                                               ; preds = %42
  store i32 5, ptr %21, align 4
  call void @llvm.lifetime.end.p0(i64 4, ptr %22) #8
  br label %159

47:                                               ; preds = %42
  %48 = load ptr, ptr %19, align 8, !tbaa !144
  %49 = getelementptr inbounds i8, ptr %48, i64 0
  %50 = load i8, ptr %49, align 1, !tbaa !152
  %51 = sext i8 %50 to i32
  %52 = load ptr, ptr %17, align 8, !tbaa !142
  %53 = load i32, ptr %22, align 4, !tbaa !9
  %54 = sub nsw i32 %53, 3
  %55 = sext i32 %54 to i64
  %56 = getelementptr inbounds i16, ptr %52, i64 %55
  %57 = load i16, ptr %56, align 2, !tbaa !148
  %58 = zext i16 %57 to i32
  %59 = mul nsw i32 %51, %58
  %60 = load ptr, ptr %19, align 8, !tbaa !144
  %61 = getelementptr inbounds i8, ptr %60, i64 1
  %62 = load i8, ptr %61, align 1, !tbaa !152
  %63 = sext i8 %62 to i32
  %64 = load ptr, ptr %17, align 8, !tbaa !142
  %65 = load i32, ptr %22, align 4, !tbaa !9
  %66 = sub nsw i32 %65, 2
  %67 = sext i32 %66 to i64
  %68 = getelementptr inbounds i16, ptr %64, i64 %67
  %69 = load i16, ptr %68, align 2, !tbaa !148
  %70 = zext i16 %69 to i32
  %71 = mul nsw i32 %63, %70
  %72 = add nsw i32 %59, %71
  %73 = load ptr, ptr %19, align 8, !tbaa !144
  %74 = getelementptr inbounds i8, ptr %73, i64 2
  %75 = load i8, ptr %74, align 1, !tbaa !152
  %76 = sext i8 %75 to i32
  %77 = load ptr, ptr %17, align 8, !tbaa !142
  %78 = load i32, ptr %22, align 4, !tbaa !9
  %79 = sub nsw i32 %78, 1
  %80 = sext i32 %79 to i64
  %81 = getelementptr inbounds i16, ptr %77, i64 %80
  %82 = load i16, ptr %81, align 2, !tbaa !148
  %83 = zext i16 %82 to i32
  %84 = mul nsw i32 %76, %83
  %85 = add nsw i32 %72, %84
  %86 = load ptr, ptr %19, align 8, !tbaa !144
  %87 = getelementptr inbounds i8, ptr %86, i64 3
  %88 = load i8, ptr %87, align 1, !tbaa !152
  %89 = sext i8 %88 to i32
  %90 = load ptr, ptr %17, align 8, !tbaa !142
  %91 = load i32, ptr %22, align 4, !tbaa !9
  %92 = sext i32 %91 to i64
  %93 = getelementptr inbounds i16, ptr %90, i64 %92
  %94 = load i16, ptr %93, align 2, !tbaa !148
  %95 = zext i16 %94 to i32
  %96 = mul nsw i32 %89, %95
  %97 = add nsw i32 %85, %96
  %98 = load ptr, ptr %19, align 8, !tbaa !144
  %99 = getelementptr inbounds i8, ptr %98, i64 4
  %100 = load i8, ptr %99, align 1, !tbaa !152
  %101 = sext i8 %100 to i32
  %102 = load ptr, ptr %17, align 8, !tbaa !142
  %103 = load i32, ptr %22, align 4, !tbaa !9
  %104 = add nsw i32 %103, 1
  %105 = sext i32 %104 to i64
  %106 = getelementptr inbounds i16, ptr %102, i64 %105
  %107 = load i16, ptr %106, align 2, !tbaa !148
  %108 = zext i16 %107 to i32
  %109 = mul nsw i32 %101, %108
  %110 = add nsw i32 %97, %109
  %111 = load ptr, ptr %19, align 8, !tbaa !144
  %112 = getelementptr inbounds i8, ptr %111, i64 5
  %113 = load i8, ptr %112, align 1, !tbaa !152
  %114 = sext i8 %113 to i32
  %115 = load ptr, ptr %17, align 8, !tbaa !142
  %116 = load i32, ptr %22, align 4, !tbaa !9
  %117 = add nsw i32 %116, 2
  %118 = sext i32 %117 to i64
  %119 = getelementptr inbounds i16, ptr %115, i64 %118
  %120 = load i16, ptr %119, align 2, !tbaa !148
  %121 = zext i16 %120 to i32
  %122 = mul nsw i32 %114, %121
  %123 = add nsw i32 %110, %122
  %124 = load ptr, ptr %19, align 8, !tbaa !144
  %125 = getelementptr inbounds i8, ptr %124, i64 6
  %126 = load i8, ptr %125, align 1, !tbaa !152
  %127 = sext i8 %126 to i32
  %128 = load ptr, ptr %17, align 8, !tbaa !142
  %129 = load i32, ptr %22, align 4, !tbaa !9
  %130 = add nsw i32 %129, 3
  %131 = sext i32 %130 to i64
  %132 = getelementptr inbounds i16, ptr %128, i64 %131
  %133 = load i16, ptr %132, align 2, !tbaa !148
  %134 = zext i16 %133 to i32
  %135 = mul nsw i32 %127, %134
  %136 = add nsw i32 %123, %135
  %137 = load ptr, ptr %19, align 8, !tbaa !144
  %138 = getelementptr inbounds i8, ptr %137, i64 7
  %139 = load i8, ptr %138, align 1, !tbaa !152
  %140 = sext i8 %139 to i32
  %141 = load ptr, ptr %17, align 8, !tbaa !142
  %142 = load i32, ptr %22, align 4, !tbaa !9
  %143 = add nsw i32 %142, 4
  %144 = sext i32 %143 to i64
  %145 = getelementptr inbounds i16, ptr %141, i64 %144
  %146 = load i16, ptr %145, align 2, !tbaa !148
  %147 = zext i16 %146 to i32
  %148 = mul nsw i32 %140, %147
  %149 = add nsw i32 %136, %148
  %150 = ashr i32 %149, 4
  %151 = trunc i32 %150 to i16
  %152 = load ptr, ptr %16, align 8, !tbaa !142
  %153 = load i32, ptr %22, align 4, !tbaa !9
  %154 = sext i32 %153 to i64
  %155 = getelementptr inbounds i16, ptr %152, i64 %154
  store i16 %151, ptr %155, align 2, !tbaa !148
  br label %156

156:                                              ; preds = %47
  %157 = load i32, ptr %22, align 4, !tbaa !9
  %158 = add nsw i32 %157, 1
  store i32 %158, ptr %22, align 4, !tbaa !9
  br label %42, !llvm.loop !157

159:                                              ; preds = %46
  %160 = load i64, ptr %18, align 8, !tbaa !146
  %161 = load ptr, ptr %17, align 8, !tbaa !142
  %162 = getelementptr inbounds i16, ptr %161, i64 %160
  store ptr %162, ptr %17, align 8, !tbaa !142
  %163 = load ptr, ptr %16, align 8, !tbaa !142
  %164 = getelementptr inbounds i16, ptr %163, i64 128
  store ptr %164, ptr %16, align 8, !tbaa !142
  br label %165

165:                                              ; preds = %159
  %166 = load i32, ptr %20, align 4, !tbaa !9
  %167 = add nsw i32 %166, 1
  store i32 %167, ptr %20, align 4, !tbaa !9
  br label %35, !llvm.loop !158

168:                                              ; preds = %40
  %169 = getelementptr inbounds [17280 x i16], ptr %15, i64 0, i64 0
  %170 = getelementptr inbounds i16, ptr %169, i64 384
  store ptr %170, ptr %16, align 8, !tbaa !142
  %171 = load ptr, ptr %13, align 8, !tbaa !144
  store ptr %171, ptr %19, align 8, !tbaa !144
  call void @llvm.lifetime.start.p0(i64 4, ptr %23) #8
  store i32 0, ptr %23, align 4, !tbaa !9
  br label %172

172:                                              ; preds = %300, %168
  %173 = load i32, ptr %23, align 4, !tbaa !9
  %174 = load i32, ptr %11, align 4, !tbaa !9
  %175 = icmp slt i32 %173, %174
  br i1 %175, label %177, label %176

176:                                              ; preds = %172
  store i32 8, ptr %21, align 4
  call void @llvm.lifetime.end.p0(i64 4, ptr %23) #8
  br label %303

177:                                              ; preds = %172
  call void @llvm.lifetime.start.p0(i64 4, ptr %24) #8
  store i32 0, ptr %24, align 4, !tbaa !9
  br label %178

178:                                              ; preds = %292, %177
  %179 = load i32, ptr %24, align 4, !tbaa !9
  %180 = load i32, ptr %14, align 4, !tbaa !9
  %181 = icmp slt i32 %179, %180
  br i1 %181, label %183, label %182

182:                                              ; preds = %178
  store i32 11, ptr %21, align 4
  call void @llvm.lifetime.end.p0(i64 4, ptr %24) #8
  br label %295

183:                                              ; preds = %178
  %184 = load ptr, ptr %19, align 8, !tbaa !144
  %185 = getelementptr inbounds i8, ptr %184, i64 0
  %186 = load i8, ptr %185, align 1, !tbaa !152
  %187 = sext i8 %186 to i32
  %188 = load ptr, ptr %16, align 8, !tbaa !142
  %189 = load i32, ptr %24, align 4, !tbaa !9
  %190 = sub nsw i32 %189, 384
  %191 = sext i32 %190 to i64
  %192 = getelementptr inbounds i16, ptr %188, i64 %191
  %193 = load i16, ptr %192, align 2, !tbaa !148
  %194 = sext i16 %193 to i32
  %195 = mul nsw i32 %187, %194
  %196 = load ptr, ptr %19, align 8, !tbaa !144
  %197 = getelementptr inbounds i8, ptr %196, i64 1
  %198 = load i8, ptr %197, align 1, !tbaa !152
  %199 = sext i8 %198 to i32
  %200 = load ptr, ptr %16, align 8, !tbaa !142
  %201 = load i32, ptr %24, align 4, !tbaa !9
  %202 = sub nsw i32 %201, 256
  %203 = sext i32 %202 to i64
  %204 = getelementptr inbounds i16, ptr %200, i64 %203
  %205 = load i16, ptr %204, align 2, !tbaa !148
  %206 = sext i16 %205 to i32
  %207 = mul nsw i32 %199, %206
  %208 = add nsw i32 %195, %207
  %209 = load ptr, ptr %19, align 8, !tbaa !144
  %210 = getelementptr inbounds i8, ptr %209, i64 2
  %211 = load i8, ptr %210, align 1, !tbaa !152
  %212 = sext i8 %211 to i32
  %213 = load ptr, ptr %16, align 8, !tbaa !142
  %214 = load i32, ptr %24, align 4, !tbaa !9
  %215 = sub nsw i32 %214, 128
  %216 = sext i32 %215 to i64
  %217 = getelementptr inbounds i16, ptr %213, i64 %216
  %218 = load i16, ptr %217, align 2, !tbaa !148
  %219 = sext i16 %218 to i32
  %220 = mul nsw i32 %212, %219
  %221 = add nsw i32 %208, %220
  %222 = load ptr, ptr %19, align 8, !tbaa !144
  %223 = getelementptr inbounds i8, ptr %222, i64 3
  %224 = load i8, ptr %223, align 1, !tbaa !152
  %225 = sext i8 %224 to i32
  %226 = load ptr, ptr %16, align 8, !tbaa !142
  %227 = load i32, ptr %24, align 4, !tbaa !9
  %228 = sext i32 %227 to i64
  %229 = getelementptr inbounds i16, ptr %226, i64 %228
  %230 = load i16, ptr %229, align 2, !tbaa !148
  %231 = sext i16 %230 to i32
  %232 = mul nsw i32 %225, %231
  %233 = add nsw i32 %221, %232
  %234 = load ptr, ptr %19, align 8, !tbaa !144
  %235 = getelementptr inbounds i8, ptr %234, i64 4
  %236 = load i8, ptr %235, align 1, !tbaa !152
  %237 = sext i8 %236 to i32
  %238 = load ptr, ptr %16, align 8, !tbaa !142
  %239 = load i32, ptr %24, align 4, !tbaa !9
  %240 = add nsw i32 %239, 128
  %241 = sext i32 %240 to i64
  %242 = getelementptr inbounds i16, ptr %238, i64 %241
  %243 = load i16, ptr %242, align 2, !tbaa !148
  %244 = sext i16 %243 to i32
  %245 = mul nsw i32 %237, %244
  %246 = add nsw i32 %233, %245
  %247 = load ptr, ptr %19, align 8, !tbaa !144
  %248 = getelementptr inbounds i8, ptr %247, i64 5
  %249 = load i8, ptr %248, align 1, !tbaa !152
  %250 = sext i8 %249 to i32
  %251 = load ptr, ptr %16, align 8, !tbaa !142
  %252 = load i32, ptr %24, align 4, !tbaa !9
  %253 = add nsw i32 %252, 256
  %254 = sext i32 %253 to i64
  %255 = getelementptr inbounds i16, ptr %251, i64 %254
  %256 = load i16, ptr %255, align 2, !tbaa !148
  %257 = sext i16 %256 to i32
  %258 = mul nsw i32 %250, %257
  %259 = add nsw i32 %246, %258
  %260 = load ptr, ptr %19, align 8, !tbaa !144
  %261 = getelementptr inbounds i8, ptr %260, i64 6
  %262 = load i8, ptr %261, align 1, !tbaa !152
  %263 = sext i8 %262 to i32
  %264 = load ptr, ptr %16, align 8, !tbaa !142
  %265 = load i32, ptr %24, align 4, !tbaa !9
  %266 = add nsw i32 %265, 384
  %267 = sext i32 %266 to i64
  %268 = getelementptr inbounds i16, ptr %264, i64 %267
  %269 = load i16, ptr %268, align 2, !tbaa !148
  %270 = sext i16 %269 to i32
  %271 = mul nsw i32 %263, %270
  %272 = add nsw i32 %259, %271
  %273 = load ptr, ptr %19, align 8, !tbaa !144
  %274 = getelementptr inbounds i8, ptr %273, i64 7
  %275 = load i8, ptr %274, align 1, !tbaa !152
  %276 = sext i8 %275 to i32
  %277 = load ptr, ptr %16, align 8, !tbaa !142
  %278 = load i32, ptr %24, align 4, !tbaa !9
  %279 = add nsw i32 %278, 512
  %280 = sext i32 %279 to i64
  %281 = getelementptr inbounds i16, ptr %277, i64 %280
  %282 = load i16, ptr %281, align 2, !tbaa !148
  %283 = sext i16 %282 to i32
  %284 = mul nsw i32 %276, %283
  %285 = add nsw i32 %272, %284
  %286 = ashr i32 %285, 6
  %287 = trunc i32 %286 to i16
  %288 = load ptr, ptr %8, align 8, !tbaa !142
  %289 = load i32, ptr %24, align 4, !tbaa !9
  %290 = sext i32 %289 to i64
  %291 = getelementptr inbounds i16, ptr %288, i64 %290
  store i16 %287, ptr %291, align 2, !tbaa !148
  br label %292

292:                                              ; preds = %183
  %293 = load i32, ptr %24, align 4, !tbaa !9
  %294 = add nsw i32 %293, 1
  store i32 %294, ptr %24, align 4, !tbaa !9
  br label %178, !llvm.loop !159

295:                                              ; preds = %182
  %296 = load ptr, ptr %16, align 8, !tbaa !142
  %297 = getelementptr inbounds i16, ptr %296, i64 128
  store ptr %297, ptr %16, align 8, !tbaa !142
  %298 = load ptr, ptr %8, align 8, !tbaa !142
  %299 = getelementptr inbounds i16, ptr %298, i64 128
  store ptr %299, ptr %8, align 8, !tbaa !142
  br label %300

300:                                              ; preds = %295
  %301 = load i32, ptr %23, align 4, !tbaa !9
  %302 = add nsw i32 %301, 1
  store i32 %302, ptr %23, align 4, !tbaa !9
  br label %172, !llvm.loop !160

303:                                              ; preds = %176
  call void @llvm.lifetime.end.p0(i64 8, ptr %19) #8
  call void @llvm.lifetime.end.p0(i64 8, ptr %18) #8
  call void @llvm.lifetime.end.p0(i64 8, ptr %17) #8
  call void @llvm.lifetime.end.p0(i64 8, ptr %16) #8
  call void @llvm.lifetime.end.p0(i64 34560, ptr %15) #8
  ret void
}