; Function Attrs: nofree norecurse nosync nounwind memory(argmem: readwrite) uwtable
define internal void @put_luma_hv_12(ptr noundef writeonly captures(none) %0, ptr noundef readonly captures(none) %1, i64 noundef %2, i32 noundef %3, ptr noundef readonly captures(none) %4, ptr noundef readonly captures(none) %5, i32 noundef %6) #2 {
  %8 = alloca [17280 x i16], align 16
  call void @llvm.lifetime.start.p0(i64 34560, ptr nonnull %8) #14
  %9 = lshr i64 %2, 1
  %.idx = mul nsw i64 %9, -6
  %10 = getelementptr inbounds i8, ptr %1, i64 %.idx
  %11 = add i32 %3, 7
  %12 = icmp sgt i32 %3, -7
  br i1 %12, label %.preheader80.lr.ph, label %._crit_edge90

.preheader80.lr.ph:                               ; preds = %7
  %13 = icmp sgt i32 %6, 0
  br i1 %13, label %.preheader80.lr.ph.split.us, label %._crit_edge85

.preheader80.lr.ph.split.us:                      ; preds = %.preheader80.lr.ph
  %14 = getelementptr inbounds nuw i8, ptr %4, i64 7
  %15 = getelementptr inbounds nuw i8, ptr %4, i64 6
  %16 = getelementptr inbounds nuw i8, ptr %4, i64 5
  %17 = getelementptr inbounds nuw i8, ptr %4, i64 4
  %18 = getelementptr inbounds nuw i8, ptr %4, i64 3
  %19 = getelementptr inbounds nuw i8, ptr %4, i64 2
  %20 = getelementptr inbounds nuw i8, ptr %4, i64 1
  %21 = load i8, ptr %4, align 1, !tbaa !128
  %22 = sext i8 %21 to i32
  %23 = load i8, ptr %20, align 1, !tbaa !128
  %24 = sext i8 %23 to i32
  %25 = load i8, ptr %19, align 1, !tbaa !128
  %26 = sext i8 %25 to i32
  %27 = load i8, ptr %18, align 1, !tbaa !128
  %28 = sext i8 %27 to i32
  %29 = load i8, ptr %17, align 1, !tbaa !128
  %30 = sext i8 %29 to i32
  %31 = load i8, ptr %16, align 1, !tbaa !128
  %32 = sext i8 %31 to i32
  %33 = load i8, ptr %15, align 1, !tbaa !128
  %34 = sext i8 %33 to i32
  %35 = load i8, ptr %14, align 1, !tbaa !128
  %36 = sext i8 %35 to i32
  %smax = tail call i32 @llvm.smax.i32(i32 %11, i32 1)
  %wide.trip.count = zext nneg i32 %6 to i64
  br label %.preheader80.us

.preheader80.us:                                  ; preds = %._crit_edge.us, %.preheader80.lr.ph.split.us
  %.07684.us = phi i32 [ 0, %.preheader80.lr.ph.split.us ], [ %82, %._crit_edge.us ]
  %.07883.us = phi ptr [ %10, %.preheader80.lr.ph.split.us ], [ %80, %._crit_edge.us ]
  %.07982.us = phi ptr [ %8, %.preheader80.lr.ph.split.us ], [ %81, %._crit_edge.us ]
  %.pre = load i16, ptr %.07883.us, align 2, !tbaa !124
  br label %37

37:                                               ; preds = %.preheader80.us, %37
  %38 = phi i16 [ %.pre, %.preheader80.us ], [ %58, %37 ]
  %indvars.iv = phi i64 [ 0, %.preheader80.us ], [ %indvars.iv.next, %37 ]
  %39 = getelementptr i16, ptr %.07883.us, i64 %indvars.iv
  %40 = getelementptr i8, ptr %39, i64 -6
  %41 = load i16, ptr %40, align 2, !tbaa !124
  %42 = zext i16 %41 to i32
  %43 = mul nsw i32 %42, %22
  %44 = getelementptr i8, ptr %39, i64 -4
  %45 = load i16, ptr %44, align 2, !tbaa !124
  %46 = zext i16 %45 to i32
  %47 = mul nsw i32 %46, %24
  %48 = add nsw i32 %47, %43
  %49 = getelementptr i8, ptr %39, i64 -2
  %50 = load i16, ptr %49, align 2, !tbaa !124
  %51 = zext i16 %50 to i32
  %52 = mul nsw i32 %51, %26
  %53 = add nsw i32 %48, %52
  %54 = zext i16 %38 to i32
  %55 = mul nsw i32 %54, %28
  %56 = add nsw i32 %53, %55
  %indvars.iv.next = add nuw nsw i64 %indvars.iv, 1
  %57 = getelementptr inbounds nuw i16, ptr %.07883.us, i64 %indvars.iv.next
  %58 = load i16, ptr %57, align 2, !tbaa !124
  %59 = zext i16 %58 to i32
  %60 = mul nsw i32 %59, %30
  %61 = add nsw i32 %56, %60
  %62 = getelementptr inbounds nuw i8, ptr %39, i64 4
  %63 = load i16, ptr %62, align 2, !tbaa !124
  %64 = zext i16 %63 to i32
  %65 = mul nsw i32 %64, %32
  %66 = add nsw i32 %61, %65
  %67 = getelementptr inbounds nuw i8, ptr %39, i64 6
  %68 = load i16, ptr %67, align 2, !tbaa !124
  %69 = zext i16 %68 to i32
  %70 = mul nsw i32 %69, %34
  %71 = add nsw i32 %66, %70
  %72 = getelementptr inbounds nuw i8, ptr %39, i64 8
  %73 = load i16, ptr %72, align 2, !tbaa !124
  %74 = zext i16 %73 to i32
  %75 = mul nsw i32 %74, %36
  %76 = add nsw i32 %71, %75
  %77 = lshr i32 %76, 4
  %78 = trunc i32 %77 to i16
  %79 = getelementptr inbounds nuw i16, ptr %.07982.us, i64 %indvars.iv
  store i16 %78, ptr %79, align 2, !tbaa !124
  %exitcond.not = icmp eq i64 %indvars.iv.next, %wide.trip.count
  br i1 %exitcond.not, label %._crit_edge.us, label %37, !llvm.loop !133

._crit_edge.us:                                   ; preds = %37
  %80 = getelementptr inbounds nuw i16, ptr %.07883.us, i64 %9
  %81 = getelementptr inbounds nuw i8, ptr %.07982.us, i64 256
  %82 = add nuw nsw i32 %.07684.us, 1
  %exitcond95.not = icmp eq i32 %82, %smax
  br i1 %exitcond95.not, label %._crit_edge85, label %.preheader80.us, !llvm.loop !134

._crit_edge85:                                    ; preds = %._crit_edge.us, %.preheader80.lr.ph
  %83 = icmp sgt i32 %3, 0
  br i1 %83, label %.preheader.lr.ph, label %._crit_edge90

.preheader.lr.ph:                                 ; preds = %._crit_edge85
  %84 = icmp sgt i32 %6, 0
  %85 = getelementptr inbounds nuw i8, ptr %5, i64 1
  %86 = getelementptr inbounds nuw i8, ptr %5, i64 2
  %87 = getelementptr inbounds nuw i8, ptr %5, i64 3
  %88 = getelementptr inbounds nuw i8, ptr %5, i64 4
  %89 = getelementptr inbounds nuw i8, ptr %5, i64 5
  %90 = getelementptr inbounds nuw i8, ptr %5, i64 6
  %91 = getelementptr inbounds nuw i8, ptr %5, i64 7
  br i1 %84, label %.preheader.us.preheader, label %._crit_edge90

.preheader.us.preheader:                          ; preds = %.preheader.lr.ph
  %92 = getelementptr inbounds nuw i8, ptr %8, i64 768
  %wide.trip.count99 = zext nneg i32 %6 to i64
  br label %.preheader.us

.preheader.us:                                    ; preds = %.preheader.us.preheader, %._crit_edge.us91
  %.07489.us = phi i32 [ %154, %._crit_edge.us91 ], [ 0, %.preheader.us.preheader ]
  %.07788.us = phi ptr [ %153, %._crit_edge.us91 ], [ %0, %.preheader.us.preheader ]
  %.187.us = phi ptr [ %152, %._crit_edge.us91 ], [ %92, %.preheader.us.preheader ]
  br label %93

93:                                               ; preds = %.preheader.us, %93
  %indvars.iv96 = phi i64 [ 0, %.preheader.us ], [ %indvars.iv.next97, %93 ]
  %94 = load i8, ptr %5, align 1, !tbaa !128
  %95 = sext i8 %94 to i32
  %96 = getelementptr i16, ptr %.187.us, i64 %indvars.iv96
  %97 = getelementptr i8, ptr %96, i64 -768
  %98 = load i16, ptr %97, align 2, !tbaa !124
  %99 = sext i16 %98 to i32
  %100 = mul nsw i32 %99, %95
  %101 = load i8, ptr %85, align 1, !tbaa !128
  %102 = sext i8 %101 to i32
  %103 = getelementptr i8, ptr %96, i64 -512
  %104 = load i16, ptr %103, align 2, !tbaa !124
  %105 = sext i16 %104 to i32
  %106 = mul nsw i32 %105, %102
  %107 = add nsw i32 %106, %100
  %108 = load i8, ptr %86, align 1, !tbaa !128
  %109 = sext i8 %108 to i32
  %110 = getelementptr i8, ptr %96, i64 -256
  %111 = load i16, ptr %110, align 2, !tbaa !124
  %112 = sext i16 %111 to i32
  %113 = mul nsw i32 %112, %109
  %114 = add nsw i32 %107, %113
  %115 = load i8, ptr %87, align 1, !tbaa !128
  %116 = sext i8 %115 to i32
  %117 = load i16, ptr %96, align 2, !tbaa !124
  %118 = sext i16 %117 to i32
  %119 = mul nsw i32 %118, %116
  %120 = add nsw i32 %114, %119
  %121 = load i8, ptr %88, align 1, !tbaa !128
  %122 = sext i8 %121 to i32
  %123 = getelementptr inbounds nuw i8, ptr %96, i64 256
  %124 = load i16, ptr %123, align 2, !tbaa !124
  %125 = sext i16 %124 to i32
  %126 = mul nsw i32 %125, %122
  %127 = add nsw i32 %120, %126
  %128 = load i8, ptr %89, align 1, !tbaa !128
  %129 = sext i8 %128 to i32
  %130 = getelementptr inbounds nuw i8, ptr %96, i64 512
  %131 = load i16, ptr %130, align 2, !tbaa !124
  %132 = sext i16 %131 to i32
  %133 = mul nsw i32 %132, %129
  %134 = add nsw i32 %127, %133
  %135 = load i8, ptr %90, align 1, !tbaa !128
  %136 = sext i8 %135 to i32
  %137 = getelementptr inbounds nuw i8, ptr %96, i64 768
  %138 = load i16, ptr %137, align 2, !tbaa !124
  %139 = sext i16 %138 to i32
  %140 = mul nsw i32 %139, %136
  %141 = add nsw i32 %134, %140
  %142 = load i8, ptr %91, align 1, !tbaa !128
  %143 = sext i8 %142 to i32
  %144 = getelementptr inbounds nuw i8, ptr %96, i64 1024
  %145 = load i16, ptr %144, align 2, !tbaa !124
  %146 = sext i16 %145 to i32
  %147 = mul nsw i32 %146, %143
  %148 = add nsw i32 %141, %147
  %149 = lshr i32 %148, 6
  %150 = trunc i32 %149 to i16
  %151 = getelementptr inbounds nuw i16, ptr %.07788.us, i64 %indvars.iv96
  store i16 %150, ptr %151, align 2, !tbaa !124
  %indvars.iv.next97 = add nuw nsw i64 %indvars.iv96, 1
  %exitcond100.not = icmp eq i64 %indvars.iv.next97, %wide.trip.count99
  br i1 %exitcond100.not, label %._crit_edge.us91, label %93, !llvm.loop !135

._crit_edge.us91:                                 ; preds = %93
  %152 = getelementptr inbounds nuw i8, ptr %.187.us, i64 256
  %153 = getelementptr inbounds nuw i8, ptr %.07788.us, i64 256
  %154 = add nuw nsw i32 %.07489.us, 1
  %exitcond101.not = icmp eq i32 %154, %3
  br i1 %exitcond101.not, label %._crit_edge90, label %.preheader.us, !llvm.loop !136

._crit_edge90:                                    ; preds = %._crit_edge.us91, %7, %.preheader.lr.ph, %._crit_edge85
  call void @llvm.lifetime.end.p0(i64 34560, ptr nonnull %8) #14
  ret void
}